target datalayout = "e-m:e-p270:32:32-p271:32:32-p272:64:64-i64:64-i128:128-f80:128-n8:16:32:64-S128"
target triple = "x86_64-unknown-linux-gnu"

@.str.9 = private unnamed_addr constant [17 x i8] c"extended headers\00", align 1
@.str.10 = private unnamed_addr constant [10 x i8] c"<unknown>\00", align 1
@.str.53 = private unnamed_addr constant [9 x i8] c"oldstyle\00", align 1
@.str.54 = private unnamed_addr constant [17 x i8] c"export name only\00", align 1
@.str.55 = private unnamed_addr constant [15 x i8] c"simple headers\00", align 1
@.str.56 = private unnamed_addr constant [19 x i8] c"structured replies\00", align 1

; Function Attrs: nounwind sspstrong uwtable
define dso_local ptr @nbd_mode_lookup(i32 noundef %mode) #0 {
entry:
  %retval = alloca ptr, align 8
  %mode.addr = alloca i32, align 4
  store i32 %mode, ptr %mode.addr, align 4
  %0 = load i32, ptr %mode.addr, align 4
  switch i32 %0, label %sw.default [
    i32 0, label %sw.bb
    i32 1, label %sw.bb1
    i32 2, label %sw.bb2
    i32 3, label %sw.bb3
    i32 4, label %sw.bb4
  ]

sw.bb:                                            ; preds = %entry
  store ptr @.str.53, ptr %retval, align 8
  br label %return

sw.bb1:                                           ; preds = %entry
  store ptr @.str.54, ptr %retval, align 8
  br label %return

sw.bb2:                                           ; preds = %entry
  store ptr @.str.55, ptr %retval, align 8
  br label %return

sw.bb3:                                           ; preds = %entry
  store ptr @.str.56, ptr %retval, align 8
  br label %return

sw.bb4:                                           ; preds = %entry
  store ptr @.str.9, ptr %retval, align 8
  br label %return

sw.default:                                       ; preds = %entry
  store ptr @.str.10, ptr %retval, align 8
  br label %return

return:                                           ; preds = %sw.default, %sw.bb4, %sw.bb3, %sw.bb2, %sw.bb1, %sw.bb
  %1 = load ptr, ptr %retval, align 8
  ret ptr %1
}